target datalayout = "e-m:e-p270:32:32-p271:32:32-p272:64:64-i64:64-i128:128-f80:128-n8:16:32:64-S128"
target triple = "x86_64-pc-linux-gnu"

%struct.SDL_EventWatchList = type { ptr, %struct.SDL_EventWatcher, ptr, i32, i8, i8 }
%struct.SDL_EventWatcher = type { ptr, ptr, i8 }

; Function Attrs: nounwind uwtable
define hidden void @SDL_RemoveEventWatchList(ptr noundef %0, ptr noundef %1, ptr noundef %2) #0 {
  %4 = alloca ptr, align 8
  %5 = alloca ptr, align 8
  %6 = alloca ptr, align 8
  %7 = alloca i32, align 4
  store ptr %0, ptr %4, align 8
  store ptr %1, ptr %5, align 8
  store ptr %2, ptr %6, align 8
  %8 = load ptr, ptr %4, align 8
  %9 = getelementptr inbounds nuw %struct.SDL_EventWatchList, ptr %8, i32 0, i32 0
  %10 = load ptr, ptr %9, align 8
  call void @SDL_LockMutex_REAL(ptr noundef %10)
  call void @llvm.lifetime.start.p0(i64 4, ptr %7) #6
  store i32 0, ptr %7, align 4
  br label %11

11:                                               ; preds = %88, %3
  %12 = load i32, ptr %7, align 4
  %13 = load ptr, ptr %4, align 8
  %14 = getelementptr inbounds nuw %struct.SDL_EventWatchList, ptr %13, i32 0, i32 3
  %15 = load i32, ptr %14, align 8
  %16 = icmp slt i32 %12, %15
  br i1 %16, label %17, label %91

17:                                               ; preds = %11
  %18 = load ptr, ptr %4, align 8
  %19 = getelementptr inbounds nuw %struct.SDL_EventWatchList, ptr %18, i32 0, i32 2
  %20 = load ptr, ptr %19, align 8
  %21 = load i32, ptr %7, align 4
  %22 = sext i32 %21 to i64
  %23 = getelementptr inbounds %struct.SDL_EventWatcher, ptr %20, i64 %22
  %24 = getelementptr inbounds nuw %struct.SDL_EventWatcher, ptr %23, i32 0, i32 0
  %25 = load ptr, ptr %24, align 8
  %26 = load ptr, ptr %5, align 8
  %27 = icmp eq ptr %25, %26
  br i1 %27, label %28, label %87

28:                                               ; preds = %17
  %29 = load ptr, ptr %4, align 8
  %30 = getelementptr inbounds nuw %struct.SDL_EventWatchList, ptr %29, i32 0, i32 2
  %31 = load ptr, ptr %30, align 8
  %32 = load i32, ptr %7, align 4
  %33 = sext i32 %32 to i64
  %34 = getelementptr inbounds %struct.SDL_EventWatcher, ptr %31, i64 %33
  %35 = getelementptr inbounds nuw %struct.SDL_EventWatcher, ptr %34, i32 0, i32 1
  %36 = load ptr, ptr %35, align 8
  %37 = load ptr, ptr %6, align 8
  %38 = icmp eq ptr %36, %37
  br i1 %38, label %39, label %87

39:                                               ; preds = %28
  %40 = load ptr, ptr %4, align 8
  %41 = getelementptr inbounds nuw %struct.SDL_EventWatchList, ptr %40, i32 0, i32 4
  %42 = load i8, ptr %41, align 4, !range !3, !noundef !4
  %43 = trunc i8 %42 to i1
  br i1 %43, label %44, label %54

44:                                               ; preds = %39
  %45 = load ptr, ptr %4, align 8
  %46 = getelementptr inbounds nuw %struct.SDL_EventWatchList, ptr %45, i32 0, i32 2
  %47 = load ptr, ptr %46, align 8
  %48 = load i32, ptr %7, align 4
  %49 = sext i32 %48 to i64
  %50 = getelementptr inbounds %struct.SDL_EventWatcher, ptr %47, i64 %49
  %51 = getelementptr inbounds nuw %struct.SDL_EventWatcher, ptr %50, i32 0, i32 2
  store i8 1, ptr %51, align 8
  %52 = load ptr, ptr %4, align 8
  %53 = getelementptr inbounds nuw %struct.SDL_EventWatchList, ptr %52, i32 0, i32 5
  store i8 1, ptr %53, align 1
  br label %86

54:                                               ; preds = %39
  %55 = load ptr, ptr %4, align 8
  %56 = getelementptr inbounds nuw %struct.SDL_EventWatchList, ptr %55, i32 0, i32 3
  %57 = load i32, ptr %56, align 8
  %58 = add nsw i32 %57, -1
  store i32 %58, ptr %56, align 8
  %59 = load i32, ptr %7, align 4
  %60 = load ptr, ptr %4, align 8
  %61 = getelementptr inbounds nuw %struct.SDL_EventWatchList, ptr %60, i32 0, i32 3
  %62 = load i32, ptr %61, align 8
  %63 = icmp slt i32 %59, %62
  br i1 %63, label %64, label %85

64:                                               ; preds = %54
  %65 = load ptr, ptr %4, align 8
  %66 = getelementptr inbounds nuw %struct.SDL_EventWatchList, ptr %65, i32 0, i32 2
  %67 = load ptr, ptr %66, align 8
  %68 = load i32, ptr %7, align 4
  %69 = sext i32 %68 to i64
  %70 = getelementptr inbounds %struct.SDL_EventWatcher, ptr %67, i64 %69
  %71 = load ptr, ptr %4, align 8
  %72 = getelementptr inbounds nuw %struct.SDL_EventWatchList, ptr %71, i32 0, i32 2
  %73 = load ptr, ptr %72, align 8
  %74 = load i32, ptr %7, align 4
  %75 = add nsw i32 %74, 1
  %76 = sext i32 %75 to i64
  %77 = getelementptr inbounds %struct.SDL_EventWatcher, ptr %73, i64 %76
  %78 = load ptr, ptr %4, align 8
  %79 = getelementptr inbounds nuw %struct.SDL_EventWatchList, ptr %78, i32 0, i32 3
  %80 = load i32, ptr %79, align 8
  %81 = load i32, ptr %7, align 4
  %82 = sub nsw i32 %80, %81
  %83 = sext i32 %82 to i64
  %84 = mul i64 %83, 24
  call void @llvm.memmove.p0.p0.i64(ptr align 8 %70, ptr align 8 %77, i64 %84, i1 false)
  br label %85

85:                                               ; preds = %64, %54
  br label %86

86:                                               ; preds = %85, %44
  br label %91

87:                                               ; preds = %28, %17
  br label %88

88:                                               ; preds = %87
  %89 = load i32, ptr %7, align 4
  %90 = add nsw i32 %89, 1
  store i32 %90, ptr %7, align 4
  br label %11, !llvm.loop !8

91:                                               ; preds = %86, %11
  call void @llvm.lifetime.end.p0(i64 4, ptr %7) #6
  %92 = load ptr, ptr %4, align 8
  %93 = getelementptr inbounds nuw %struct.SDL_EventWatchList, ptr %92, i32 0, i32 0
  %94 = load ptr, ptr %93, align 8
  call void @SDL_UnlockMutex_REAL(ptr noundef %94)
  ret void
}