; Function Attrs: nounwind uwtable
define hidden void @SDL_RemoveEventWatchList(ptr noundef captures(none) %0, ptr noundef readnone captures(address) %1, ptr noundef readnone captures(address) %2) local_unnamed_addr #0 {
  %4 = load ptr, ptr %0, align 8
  tail call void @SDL_LockMutex_REAL(ptr noundef %4) #5
  %5 = getelementptr inbounds nuw i8, ptr %0, i64 40
  %6 = load i32, ptr %5, align 8
  %7 = icmp sgt i32 %6, 0
  br i1 %7, label %.lr.ph, label %.loopexit

.lr.ph:                                           ; preds = %3
  %8 = getelementptr inbounds nuw i8, ptr %0, i64 32
  %9 = load ptr, ptr %8, align 8
  %wide.trip.count = zext nneg i32 %6 to i64
  br label %10

10:                                               ; preds = %.lr.ph, %34
  %indvars.iv = phi i64 [ 0, %.lr.ph ], [ %indvars.iv.next, %34 ]
  %11 = getelementptr inbounds nuw %struct.SDL_EventWatcher, ptr %9, i64 %indvars.iv
  %12 = load ptr, ptr %11, align 8
  %13 = icmp eq ptr %12, %1
  br i1 %13, label %14, label %34

14:                                               ; preds = %10
  %15 = getelementptr inbounds nuw i8, ptr %11, i64 8
  %16 = load ptr, ptr %15, align 8
  %17 = icmp eq ptr %16, %2
  br i1 %17, label %18, label %34

18:                                               ; preds = %14
  %19 = trunc nuw nsw i64 %indvars.iv to i32
  %20 = getelementptr inbounds nuw i8, ptr %0, i64 44
  %21 = load i8, ptr %20, align 4, !range !3, !noundef !4
  %22 = trunc nuw i8 %21 to i1
  br i1 %22, label %23, label %26

23:                                               ; preds = %18
  %24 = getelementptr inbounds nuw i8, ptr %11, i64 16
  store i8 1, ptr %24, align 8
  %25 = getelementptr inbounds nuw i8, ptr %0, i64 45
  store i8 1, ptr %25, align 1
  br label %.loopexit

26:                                               ; preds = %18
  %27 = add nsw i32 %6, -1
  store i32 %27, ptr %5, align 8
  %28 = icmp sgt i32 %27, %19
  br i1 %28, label %29, label %.loopexit

29:                                               ; preds = %26
  %30 = getelementptr inbounds nuw i8, ptr %11, i64 24
  %31 = sub nsw i32 %27, %19
  %32 = sext i32 %31 to i64
  %33 = mul nsw i64 %32, 24
  tail call void @llvm.memmove.p0.p0.i64(ptr nonnull align 8 %11, ptr nonnull align 8 %30, i64 %33, i1 false)
  br label %.loopexit

34:                                               ; preds = %10, %14
  %indvars.iv.next = add nuw nsw i64 %indvars.iv, 1
  %exitcond.not = icmp eq i64 %indvars.iv.next, %wide.trip.count
  br i1 %exitcond.not, label %.loopexit, label %10, !llvm.loop !8

.loopexit:                                        ; preds = %34, %3, %23, %29, %26
  %35 = load ptr, ptr %0, align 8
  tail call void @SDL_UnlockMutex_REAL(ptr noundef %35) #5
  ret void
}